target datalayout = "e-m:e-p270:32:32-p271:32:32-p272:64:64-i64:64-i128:128-f80:128-n8:16:32:64-S128"
target triple = "x86_64-pc-linux-gnu"

; Function Attrs: nounwind uwtable
define void @Java_java_util_zip_Inflater_end(ptr noundef %0, ptr noundef %1, i64 noundef %2) #0 {
  %4 = alloca ptr, align 8
  %5 = alloca ptr, align 8
  %6 = alloca i64, align 8
  store ptr %0, ptr %4, align 8
  store ptr %1, ptr %5, align 8
  store i64 %2, ptr %6, align 8
  %7 = load i64, ptr %6, align 8
  %8 = inttoptr i64 %7 to ptr
  %9 = call i32 @inflateEnd(ptr noundef %8)
  %10 = icmp eq i32 %9, -2
  br i1 %10, label %11, label %13

11:                                               ; preds = %3
  %12 = load ptr, ptr %4, align 8
  call void @JNU_ThrowInternalError(ptr noundef %12, ptr noundef null)
  br label %16

13:                                               ; preds = %3
  %14 = load i64, ptr %6, align 8
  %15 = inttoptr i64 %14 to ptr
  call void @free(ptr noundef %15) #5
  br label %16

16:                                               ; preds = %13, %11
  ret void
}