; Function Attrs: nounwind uwtable
define void @Java_java_util_zip_Inflater_end(ptr noundef %0, ptr nocapture noundef readnone %1, i64 noundef %2) local_unnamed_addr #0 {
  %4 = inttoptr i64 %2 to ptr
  %5 = tail call i32 @inflateEnd(ptr noundef %4) #5
  %6 = icmp eq i32 %5, -2
  br i1 %6, label %7, label %8

7:                                                ; preds = %3
  tail call void @JNU_ThrowInternalError(ptr noundef %0, ptr noundef null) #5
  br label %9

8:                                                ; preds = %3
  tail call void @free(ptr noundef %4) #5
  br label %9

9:                                                ; preds = %8, %7
  ret void
}